target datalayout = "e-m:e-p270:32:32-p271:32:32-p272:64:64-i64:64-i128:128-f80:128-n8:16:32:64-S128"
target triple = "x86_64-pc-linux-gnu"

%"struct.base::OffsetAdjuster::Adjustment" = type { i64, i64, i64 }
%"class.__gnu_cxx::__normal_iterator.5" = type { ptr }
%"struct.std::_Vector_base" = type { %"struct.std::_Vector_base<base::OffsetAdjuster::Adjustment, std::allocator<base::OffsetAdjuster::Adjustment>>::_Vector_impl" }
%"struct.std::_Vector_base<base::OffsetAdjuster::Adjustment, std::allocator<base::OffsetAdjuster::Adjustment>>::_Vector_impl" = type { %"struct.std::_Vector_base<base::OffsetAdjuster::Adjustment, std::allocator<base::OffsetAdjuster::Adjustment>>::_Vector_impl_data" }
%"struct.std::_Vector_base<base::OffsetAdjuster::Adjustment, std::allocator<base::OffsetAdjuster::Adjustment>>::_Vector_impl_data" = type { ptr, ptr, ptr }

; Function Attrs: mustprogress nounwind uwtable
define linkonce_odr noundef nonnull align 8 dereferenceable(8) ptr @_ZNK9__gnu_cxx17__normal_iteratorIPKN4base14OffsetAdjuster10AdjustmentESt6vectorIS3_SaIS3_EEE4baseEv(ptr noundef nonnull align 8 dereferenceable(8) %0) #0 comdat align 2 {
  %2 = alloca ptr, align 8
  store ptr %0, ptr %2, align 8, !tbaa !29
  %3 = load ptr, ptr %2, align 8
  %4 = getelementptr inbounds nuw %"class.__gnu_cxx::__normal_iterator.5", ptr %3, i32 0, i32 0
  ret ptr %4
}

; Function Attrs: mustprogress nounwind uwtable
define linkonce_odr void @_ZN9__gnu_cxx17__normal_iteratorIPKN4base14OffsetAdjuster10AdjustmentESt6vectorIS3_SaIS3_EEEC2ERKS5_(ptr noundef nonnull align 8 dereferenceable(8) %0, ptr noundef nonnull align 8 dereferenceable(8) %1) unnamed_addr #0 comdat align 2 {
  %3 = alloca ptr, align 8
  %4 = alloca ptr, align 8
  store ptr %0, ptr %3, align 8, !tbaa !29
  store ptr %1, ptr %4, align 8, !tbaa !107
  %5 = load ptr, ptr %3, align 8
  %6 = getelementptr inbounds nuw %"class.__gnu_cxx::__normal_iterator.5", ptr %5, i32 0, i32 0
  %7 = load ptr, ptr %4, align 8, !tbaa !107
  %8 = load ptr, ptr %7, align 8, !tbaa !3
  store ptr %8, ptr %6, align 8, !tbaa !31
  ret void
}

; Function Attrs: mustprogress nounwind uwtable
define linkonce_odr noundef nonnull align 8 dereferenceable(8) ptr @_ZN9__gnu_cxx17__normal_iteratorIPKN4base14OffsetAdjuster10AdjustmentESt6vectorIS3_SaIS3_EEEppEv(ptr noundef nonnull align 8 dereferenceable(8) %0) #0 comdat align 2 {
  %2 = alloca ptr, align 8
  store ptr %0, ptr %2, align 8, !tbaa !29
  %3 = load ptr, ptr %2, align 8
  %4 = getelementptr inbounds nuw %"class.__gnu_cxx::__normal_iterator.5", ptr %3, i32 0, i32 0
  %5 = load ptr, ptr %4, align 8, !tbaa !31
  %6 = getelementptr inbounds nuw %"struct.base::OffsetAdjuster::Adjustment", ptr %5, i32 1
  store ptr %6, ptr %4, align 8, !tbaa !31
  ret ptr %3
}

; Function Attrs: mustprogress nounwind uwtable
define linkonce_odr noundef ptr @_ZNK9__gnu_cxx17__normal_iteratorIPKN4base14OffsetAdjuster10AdjustmentESt6vectorIS3_SaIS3_EEEptEv(ptr noundef nonnull align 8 dereferenceable(8) %0) #0 comdat align 2 {
  %2 = alloca ptr, align 8
  store ptr %0, ptr %2, align 8, !tbaa !29
  %3 = load ptr, ptr %2, align 8
  %4 = getelementptr inbounds nuw %"class.__gnu_cxx::__normal_iterator.5", ptr %3, i32 0, i32 0
  %5 = load ptr, ptr %4, align 8, !tbaa !31
  ret ptr %5
}

; Function Attrs: inlinehint mustprogress nounwind uwtable
define linkonce_odr noundef zeroext i1 @_ZN9__gnu_cxxneIPKN4base14OffsetAdjuster10AdjustmentESt6vectorIS3_SaIS3_EEEEbRKNS_17__normal_iteratorIT_T0_EESE_(ptr noundef nonnull align 8 dereferenceable(8) %0, ptr noundef nonnull align 8 dereferenceable(8) %1) #3 comdat {
  %3 = alloca ptr, align 8
  %4 = alloca ptr, align 8
  store ptr %0, ptr %3, align 8, !tbaa !29
  store ptr %1, ptr %4, align 8, !tbaa !29
  %5 = load ptr, ptr %3, align 8, !tbaa !29
  %6 = call noundef nonnull align 8 dereferenceable(8) ptr @_ZNK9__gnu_cxx17__normal_iteratorIPKN4base14OffsetAdjuster10AdjustmentESt6vectorIS3_SaIS3_EEE4baseEv(ptr noundef nonnull align 8 dereferenceable(8) %5) #15
  %7 = load ptr, ptr %6, align 8, !tbaa !3
  %8 = load ptr, ptr %4, align 8, !tbaa !29
  %9 = call noundef nonnull align 8 dereferenceable(8) ptr @_ZNK9__gnu_cxx17__normal_iteratorIPKN4base14OffsetAdjuster10AdjustmentESt6vectorIS3_SaIS3_EEE4baseEv(ptr noundef nonnull align 8 dereferenceable(8) %8) #15
  %10 = load ptr, ptr %9, align 8, !tbaa !3
  %11 = icmp ne ptr %7, %10
  ret i1 %11
}

; Function Attrs: mustprogress nounwind uwtable
define linkonce_odr ptr @_ZNKSt6vectorIN4base14OffsetAdjuster10AdjustmentESaIS2_EE3endEv(ptr noundef nonnull align 8 dereferenceable(24) %0) #0 comdat align 2 {
  %2 = alloca %"class.__gnu_cxx::__normal_iterator.5", align 8
  %3 = alloca ptr, align 8
  store ptr %0, ptr %3, align 8, !tbaa !14
  %4 = load ptr, ptr %3, align 8
  %5 = getelementptr inbounds nuw %"struct.std::_Vector_base", ptr %4, i32 0, i32 0
  %6 = getelementptr inbounds nuw %"struct.std::_Vector_base<base::OffsetAdjuster::Adjustment, std::allocator<base::OffsetAdjuster::Adjustment>>::_Vector_impl_data", ptr %5, i32 0, i32 1
  call void @_ZN9__gnu_cxx17__normal_iteratorIPKN4base14OffsetAdjuster10AdjustmentESt6vectorIS3_SaIS3_EEEC2ERKS5_(ptr noundef nonnull align 8 dereferenceable(8) %2, ptr noundef nonnull align 8 dereferenceable(8) %6) #15
  %7 = getelementptr inbounds nuw %"class.__gnu_cxx::__normal_iterator.5", ptr %2, i32 0, i32 0
  %8 = load ptr, ptr %7, align 8
  ret ptr %8
}

; Function Attrs: mustprogress nounwind uwtable
define linkonce_odr ptr @_ZNKSt6vectorIN4base14OffsetAdjuster10AdjustmentESaIS2_EE5beginEv(ptr noundef nonnull align 8 dereferenceable(24) %0) #0 comdat align 2 {
  %2 = alloca %"class.__gnu_cxx::__normal_iterator.5", align 8
  %3 = alloca ptr, align 8
  store ptr %0, ptr %3, align 8, !tbaa !14
  %4 = load ptr, ptr %3, align 8
  %5 = getelementptr inbounds nuw %"struct.std::_Vector_base", ptr %4, i32 0, i32 0
  %6 = getelementptr inbounds nuw %"struct.std::_Vector_base<base::OffsetAdjuster::Adjustment, std::allocator<base::OffsetAdjuster::Adjustment>>::_Vector_impl_data", ptr %5, i32 0, i32 0
  call void @_ZN9__gnu_cxx17__normal_iteratorIPKN4base14OffsetAdjuster10AdjustmentESt6vectorIS3_SaIS3_EEEC2ERKS5_(ptr noundef nonnull align 8 dereferenceable(8) %2, ptr noundef nonnull align 8 dereferenceable(8) %6) #15
  %7 = getelementptr inbounds nuw %"class.__gnu_cxx::__normal_iterator.5", ptr %2, i32 0, i32 0
  %8 = load ptr, ptr %7, align 8
  ret ptr %8
}

; Function Attrs: mustprogress nounwind uwtable
define void @_ZN4base14OffsetAdjuster14UnadjustOffsetERKSt6vectorINS0_10AdjustmentESaIS2_EEPm(ptr noundef nonnull align 8 dereferenceable(24) %0, ptr noundef %1) #0 align 2 {
  %3 = alloca ptr, align 8
  %4 = alloca ptr, align 8
  %5 = alloca i32, align 4
  %6 = alloca %"class.__gnu_cxx::__normal_iterator.5", align 8
  %7 = alloca %"class.__gnu_cxx::__normal_iterator.5", align 8
  %8 = alloca i32, align 4
  store ptr %0, ptr %3, align 8, !tbaa !14
  store ptr %1, ptr %4, align 8, !tbaa !22
  %9 = load ptr, ptr %4, align 8, !tbaa !22
  %10 = load i64, ptr %9, align 8, !tbaa !8
  %11 = icmp eq i64 %10, -1
  br i1 %11, label %12, label %13

12:                                               ; preds = %2
  br label %73

13:                                               ; preds = %2
  call void @llvm.lifetime.start.p0(i64 4, ptr %5) #15
  store i32 0, ptr %5, align 4, !tbaa !24
  call void @llvm.lifetime.start.p0(i64 8, ptr %6) #15
  %14 = load ptr, ptr %3, align 8, !tbaa !14
  %15 = call ptr @_ZNKSt6vectorIN4base14OffsetAdjuster10AdjustmentESaIS2_EE5beginEv(ptr noundef nonnull align 8 dereferenceable(24) %14) #15
  %16 = getelementptr inbounds nuw %"class.__gnu_cxx::__normal_iterator.5", ptr %6, i32 0, i32 0
  store ptr %15, ptr %16, align 8
  br label %17

17:                                               ; preds = %61, %13
  call void @llvm.lifetime.start.p0(i64 8, ptr %7) #15
  %18 = load ptr, ptr %3, align 8, !tbaa !14
  %19 = call ptr @_ZNKSt6vectorIN4base14OffsetAdjuster10AdjustmentESaIS2_EE3endEv(ptr noundef nonnull align 8 dereferenceable(24) %18) #15
  %20 = getelementptr inbounds nuw %"class.__gnu_cxx::__normal_iterator.5", ptr %7, i32 0, i32 0
  store ptr %19, ptr %20, align 8
  %21 = call noundef zeroext i1 @_ZN9__gnu_cxxneIPKN4base14OffsetAdjuster10AdjustmentESt6vectorIS3_SaIS3_EEEEbRKNS_17__normal_iteratorIT_T0_EESE_(ptr noundef nonnull align 8 dereferenceable(8) %6, ptr noundef nonnull align 8 dereferenceable(8) %7) #15
  call void @llvm.lifetime.end.p0(i64 8, ptr %7) #15
  br i1 %21, label %23, label %22

22:                                               ; preds = %17
  store i32 2, ptr %8, align 4
  br label %63

23:                                               ; preds = %17
  %24 = load ptr, ptr %4, align 8, !tbaa !22
  %25 = load i64, ptr %24, align 8, !tbaa !8
  %26 = load i32, ptr %5, align 4, !tbaa !24
  %27 = sext i32 %26 to i64
  %28 = add i64 %25, %27
  %29 = call noundef ptr @_ZNK9__gnu_cxx17__normal_iteratorIPKN4base14OffsetAdjuster10AdjustmentESt6vectorIS3_SaIS3_EEEptEv(ptr noundef nonnull align 8 dereferenceable(8) %6) #15
  %30 = getelementptr inbounds nuw %"struct.base::OffsetAdjuster::Adjustment", ptr %29, i32 0, i32 0
  %31 = load i64, ptr %30, align 8, !tbaa !10
  %32 = icmp ule i64 %28, %31
  br i1 %32, label %33, label %34

33:                                               ; preds = %23
  store i32 2, ptr %8, align 4
  br label %63

34:                                               ; preds = %23
  %35 = call noundef ptr @_ZNK9__gnu_cxx17__normal_iteratorIPKN4base14OffsetAdjuster10AdjustmentESt6vectorIS3_SaIS3_EEEptEv(ptr noundef nonnull align 8 dereferenceable(8) %6) #15
  %36 = getelementptr inbounds nuw %"struct.base::OffsetAdjuster::Adjustment", ptr %35, i32 0, i32 1
  %37 = load i64, ptr %36, align 8, !tbaa !12
  %38 = call noundef ptr @_ZNK9__gnu_cxx17__normal_iteratorIPKN4base14OffsetAdjuster10AdjustmentESt6vectorIS3_SaIS3_EEEptEv(ptr noundef nonnull align 8 dereferenceable(8) %6) #15
  %39 = getelementptr inbounds nuw %"struct.base::OffsetAdjuster::Adjustment", ptr %38, i32 0, i32 2
  %40 = load i64, ptr %39, align 8, !tbaa !13
  %41 = sub i64 %37, %40
  %42 = trunc i64 %41 to i32
  %43 = load i32, ptr %5, align 4, !tbaa !24
  %44 = add nsw i32 %43, %42
  store i32 %44, ptr %5, align 4, !tbaa !24
  %45 = load ptr, ptr %4, align 8, !tbaa !22
  %46 = load i64, ptr %45, align 8, !tbaa !8
  %47 = load i32, ptr %5, align 4, !tbaa !24
  %48 = sext i32 %47 to i64
  %49 = add i64 %46, %48
  %50 = call noundef ptr @_ZNK9__gnu_cxx17__normal_iteratorIPKN4base14OffsetAdjuster10AdjustmentESt6vectorIS3_SaIS3_EEEptEv(ptr noundef nonnull align 8 dereferenceable(8) %6) #15
  %51 = getelementptr inbounds nuw %"struct.base::OffsetAdjuster::Adjustment", ptr %50, i32 0, i32 0
  %52 = load i64, ptr %51, align 8, !tbaa !10
  %53 = call noundef ptr @_ZNK9__gnu_cxx17__normal_iteratorIPKN4base14OffsetAdjuster10AdjustmentESt6vectorIS3_SaIS3_EEEptEv(ptr noundef nonnull align 8 dereferenceable(8) %6) #15
  %54 = getelementptr inbounds nuw %"struct.base::OffsetAdjuster::Adjustment", ptr %53, i32 0, i32 1
  %55 = load i64, ptr %54, align 8, !tbaa !12
  %56 = add i64 %52, %55
  %57 = icmp ult i64 %49, %56
  br i1 %57, label %58, label %60

58:                                               ; preds = %34
  %59 = load ptr, ptr %4, align 8, !tbaa !22
  store i64 -1, ptr %59, align 8, !tbaa !8
  store i32 1, ptr %8, align 4
  br label %63

60:                                               ; preds = %34
  br label %61

61:                                               ; preds = %60
  %62 = call noundef nonnull align 8 dereferenceable(8) ptr @_ZN9__gnu_cxx17__normal_iteratorIPKN4base14OffsetAdjuster10AdjustmentESt6vectorIS3_SaIS3_EEEppEv(ptr noundef nonnull align 8 dereferenceable(8) %6) #15
  br label %17, !llvm.loop !34

63:                                               ; preds = %58, %33, %22
  call void @llvm.lifetime.end.p0(i64 8, ptr %6) #15
  %64 = load i32, ptr %8, align 4
  switch i32 %64, label %71 [
    i32 2, label %65
  ]

65:                                               ; preds = %63
  %66 = load i32, ptr %5, align 4, !tbaa !24
  %67 = sext i32 %66 to i64
  %68 = load ptr, ptr %4, align 8, !tbaa !22
  %69 = load i64, ptr %68, align 8, !tbaa !8
  %70 = add i64 %69, %67
  store i64 %70, ptr %68, align 8, !tbaa !8
  store i32 0, ptr %8, align 4
  br label %71

71:                                               ; preds = %65, %63
  call void @llvm.lifetime.end.p0(i64 4, ptr %5) #15
  %72 = load i32, ptr %8, align 4
  switch i32 %72, label %74 [
    i32 0, label %73
    i32 1, label %73
  ]

73:                                               ; preds = %12, %71, %71
  ret void

74:                                               ; preds = %71
  unreachable
}