; Function Attrs: mustprogress nofree norecurse nosync nounwind memory(read, argmem: readwrite, inaccessiblemem: none) uwtable
define void @_ZN4base14OffsetAdjuster14UnadjustOffsetERKSt6vectorINS0_10AdjustmentESaIS2_EEPm(ptr noundef nonnull readonly align 8 captures(none) dereferenceable(24) %0, ptr noundef captures(none) %1) local_unnamed_addr #3 align 2 {
  %3 = load i64, ptr %1, align 8, !tbaa !15
  %4 = icmp eq i64 %3, -1
  br i1 %4, label %28, label %5

5:                                                ; preds = %2
  %6 = load ptr, ptr %0, align 8, !tbaa !10
  %7 = getelementptr inbounds nuw i8, ptr %0, i64 8
  %8 = load ptr, ptr %7, align 8, !tbaa !10
  %.not2224 = icmp eq ptr %6, %8
  br i1 %.not2224, label %._crit_edge, label %.lr.ph

9:                                                ; preds = %14
  %10 = getelementptr inbounds nuw i8, ptr %.sroa.012.025, i64 24
  %.not22 = icmp eq ptr %10, %8
  br i1 %.not22, label %._crit_edge.loopexit, label %.lr.ph, !llvm.loop !19

.lr.ph:                                           ; preds = %5, %9
  %.01126 = phi i32 [ %21, %9 ], [ 0, %5 ]
  %.sroa.012.025 = phi ptr [ %10, %9 ], [ %6, %5 ]
  %11 = sext i32 %.01126 to i64
  %12 = add i64 %3, %11
  %13 = load i64, ptr %.sroa.012.025, align 8, !tbaa !3
  %.not = icmp ugt i64 %12, %13
  br i1 %.not, label %14, label %._crit_edge.loopexit

14:                                               ; preds = %.lr.ph
  %15 = getelementptr inbounds nuw i8, ptr %.sroa.012.025, i64 8
  %16 = load i64, ptr %15, align 8, !tbaa !8
  %17 = getelementptr inbounds nuw i8, ptr %.sroa.012.025, i64 16
  %18 = load i64, ptr %17, align 8, !tbaa !9
  %19 = sub i64 %16, %18
  %20 = trunc i64 %19 to i32
  %21 = add nsw i32 %.01126, %20
  %22 = sext i32 %21 to i64
  %23 = add i64 %3, %22
  %24 = add i64 %16, %13
  %25 = icmp ult i64 %23, %24
  br i1 %25, label %.sink.split, label %9

._crit_edge.loopexit:                             ; preds = %9, %.lr.ph
  %.011.lcssa.ph = phi i32 [ %.01126, %.lr.ph ], [ %21, %9 ]
  %26 = sext i32 %.011.lcssa.ph to i64
  br label %._crit_edge

._crit_edge:                                      ; preds = %._crit_edge.loopexit, %5
  %.011.lcssa = phi i64 [ 0, %5 ], [ %26, %._crit_edge.loopexit ]
  %27 = add i64 %3, %.011.lcssa
  br label %.sink.split

.sink.split:                                      ; preds = %14, %._crit_edge
  %.sink = phi i64 [ %27, %._crit_edge ], [ -1, %14 ]
  store i64 %.sink, ptr %1, align 8, !tbaa !15
  br label %28

28:                                               ; preds = %.sink.split, %2
  ret void
}